(dp1
S'all'
p2
I0
sS'broke'
p3
I0
sS'perch'
p4
I1
sS'caused'
p5
I0
sS'Indians'
p6
I0
sS'Sugar'
p7
I1
sS'founded'
p8
I0
sS'kestrel'
p9
I1
sS'surgical'
p10
I1
sS'mile'
p11
I0
sS'hanging'
p12
I0
sS'battle'
p13
I0
sS'coverts'
p14
I1
sS'Summulae'
p15
I1
sS'Isle'
p16
I1
sS'row'
p17
I0
sS'Organon'
p18
I1
sS'hunting'
p19
I0
sS'startled'
p20
I0
sS'subjected'
p21
I0
sS'fenced'
p22
I0
sS'father'
p23
I0
sS'subsided'
p24
I0
sS'send'
p25
I0
sS'nose'
p26
I0
sS'to'
p27
I0
sS'sweltering'
p28
I1
sS'under'
p29
I0
sS'\xbf'
I1
sS'inwards'
p30
I1
sS'women'
p31
I0
sS'crest'
p32
I0
sS'sent'
p33
I0
sS'fly'
p34
I0
sS'lure'
p35
I0
sS'mornin'
p36
I2
sS'kennels'
p37
I1
sS'sitting'
p38
I0
sS'far'
p39
I0
sS'panting'
p40
I0
sS'Rattlin'
p41
I1
sS'nostrils'
p42
I0
sS'every'
p43
I0
sS'fall'
p44
I0
sS'wagons'
p45
I0
sS'Metheglyn'
p46
I1
sS'month'
p47
I0
sS'Where'
p48
I0
sS'common'
p49
I0
sS'denounced'
p50
I0
sS'heaven'
p51
I0
sS'inward'
p52
I0
sS'Just'
p53
I0
sS'wooden'
p54
I0
sS'laying'
p55
I0
sS'loathed'
p56
I0
sS'Gramarye'
p57
I1
sS'MASHAMS'
p58
I1
sS'Much'
p59
I0
sS'shouting'
p60
I0
sS'small'
p61
I0
sS'barracks'
p62
I0
sS'rabbits'
p63
I0
sS'Tuesdays'
p64
I1
sS'clothes'
p65
I0
sS'slow'
p66
I0
sS'talked'
p67
I0
sS'says'
p68
I0
sS'specially'
p69
I0
sS'yourself'
p70
I0
sS'feathers'
p71
I0
sS'direct'
p72
I0
sS'Long'
p73
I0
sS'horn'
p74
I0
sS'go'
p75
I0
sS'Only'
p76
I0
sS'street'
p77
I0
sS'catching'
p78
I0
sS'hawkin'
p79
I1
sS'pass'
p80
I0
sS'leashes'
p81
I1
sS'Cardoile'
p82
I1
sS'port'
p83
I0
sS'Red'
p84
I0
sS'shining'
p85
I0
sS'blue'
p86
I0
sS'will'
p87
I0
sS'what'
p88
I0
sS'Latin'
p89
I0
sS'stood'
p90
I0
sS'DARKNESS'
p91
I1
sS'rate'
p92
I0
sS'Bruce'
p93
I0
sS'crowding'
p94
I0
sS'beaten'
p95
I0
sS'Isnt'
p96
I1
sS'poison'
p97
I0
sS'flicked'
p98
I0
sS'poles'
p99
I0
sS'malevolent'
p100
I0
sS'neat'
p101
I0
sS';'
I0
sS'order'
p102
I0
sS'nights'
p103
I0
sS'movement'
p104
I0
sS'body'
p105
I0
sS'full'
p106
I0
sS'hero'
p107
I0
sS'necked'
p108
I1
sS'never'
p109
I0
sS'raked'
p110
I0
sS'giant'
p111
I0
sS'hundreds'
p112
I0
sS'knocked'
p113
I0
sS'apartment'
p114
I0
sS'undo'
p115
I0
sS'yards'
p116
I0
sS'others'
p117
I0
sS'alone'
p118
I0
sS'along'
p119
I0
sS'rakes'
p120
I1
sS'teaches'
p121
I0
sS'change'
p122
I0
sS'sayin'
p123
I1
sS'dry'
p124
I0
sS'boy'
p125
I0
sS'great'
p126
I0
sS'houses'
p127
I0
sS'distressed'
p128
I0
sS'page_1'
p129
I1
sS'Ginger'
p130
I1
sS'Wrangle'
p131
I1
sS'Cant'
p132
I1
sS'scolded'
p133
I1
sS'pick'
p134
I0
sS'mistake'
p135
I0
sS'MY'
p136
I1
sS'fell'
p137
I0
sS'thats'
p138
I1
sS'criticism'
p139
I0
sS'tiercel'
p140
I1
sS'followed'
p141
I0
sS'grumbled'
p142
I1
sS'Snurt'
p143
I1
sS'When'
p144
I0
sS'tiny'
p145
I0
sS'Also'
p146
I0
sS'follower'
p147
I0
sS'ninety'
p148
I0
sS'Mondays'
p149
I2
sS'sparkling'
p150
I0
sS'stern'
p151
I0
sS'doubtfully'
p152
I0
sS'Thursdays'
p153
I1
sS'tools'
p154
I0
sS'sky'
p155
I0
sS'everybody'
p156
I0
sS'use'
p157
I0
sS'from'
p158
I0
sS'takes'
p159
I0
sS'would'
p160
I0
sS'oclock'
p161
I2
sS'angry'
p162
I0
sS'visit'
p163
I0
sS'two'
p164
I0
sS'mort'
p165
I1
sS'next'
p166
I0
sS'few'
p167
I0
sS'neatly'
p168
I0
sS'MERLYN'
p169
I1
sS'overhead'
p170
I0
sS'teeth'
p171
I0
sS'taken'
p172
I0
sS'themselves'
p173
I0
sS'jesses'
p174
I2
sS'sweated'
p175
I1
sS'until'
p176
I0
sS'FRIEND'
p177
I1
sS'more'
p178
I0
sS'horses'
p179
I0
sS'flat'
p180
I0
sS'wretched'
p181
I0
sS'door'
p182
I0
sS'Mixbury'
p183
I1
sS'pike'
p184
I0
sS'These'
p185
I0
sS'mad'
p186
I0
sS'ninny'
p187
I1
sS'REPOSE'
p188
I1
sS'tilting'
p189
I1
sS'glass'
p190
I0
sS'carrying'
p191
I0
sS'So'
p192
I0
sS'labelled'
p193
I0
sS'rabbit'
p194
I0
sS'mowed'
p195
I1
sS'Found'
p196
I1
sS'hole'
p197
I0
sS'must'
p198
I0
sS'me'
p199
I0
sS'high'
p200
I0
sS'keeping'
p201
I0
sS'room'
p202
I0
sS'rights'
p203
I0
sS'this'
p204
I0
sS'fortified'
p205
I0
sS'QUEEN'
p206
I1
sS'plunged'
p207
I0
sS'measures'
p208
I0
sS'Burbly'
p209
I1
sS'itself'
p210
I0
sS'crossed'
p211
I0
sS'can'
p212
I0
sS'believed'
p213
I0
sS'making'
p214
I0
sS'my'
p215
I0
sS'rufter'
p216
I1
sS'history'
p217
I0
sS'beautiful'
p218
I0
sS'admired'
p219
I0
sS'bent'
p220
I0
sS'estate'
p221
I0
sS'give'
p222
I0
sS'lives'
p223
I0
sS'flung'
p224
I0
sS'swivel'
p225
I0
sS'pieces'
p226
I0
sS'MAHARAJAH'
p227
I1
sS'woman'
p228
I0
sS'recollect'
p229
I1
sS'allowed'
p230
I0
sS'cows'
p231
I0
sS'jumble'
p232
I0
sS'tan'
p233
I0
sS'Saunce'
p234
I1
sS'rid'
p235
I0
sS'worse'
p236
I0
sS'snipped'
p237
I1
sS'huge'
p238
I0
sS'counting'
p239
I0
sS'end'
p240
I0
sS'winter'
p241
I0
sS'swished'
p242
I0
sS'sit'
p243
I0
sS'thighs'
p244
I0
sS'divided'
p245
I0
sS'meanwhile'
p246
I0
sS'peregrine'
p247
I1
sS'tickling'
p248
I1
sS'1'
I0
sS'how'
p249
I0
sS'scratched'
p250
I0
sS'seeds'
p251
I0
sS'forest'
p252
I0
sS'opposite'
p253
I0
sS'swivels'
p254
I1
sS'instead'
p255
I0
sS'Kay'
p256
I0
sS'chase'
p257
I0
sS'Primus'
p258
I1
sS'dignified'
p259
I0
sS'thinkin'
p260
I0
sS'A'
I0
sS'staying'
p261
I0
sS'tried'
p262
I0
sS'mouths'
p263
I0
sS'easily'
p264
I0
sS'suppose'
p265
I0
sS'advice'
p266
I0
sS'after'
p267
I0
sS'derived'
p268
I0
sS'tied'
p269
I0
sS'mother'
p270
I0
sS'wrong'
p271
I0
sS'OTHER'
p272
I1
sS'lay'
p273
I0
sS'Pit\xef'
p274
I1
sS'mowers'
p275
I1
sS'such'
p276
I0
sS'horizontal'
p277
I0
sS'hawk'
p278
I0
sS'grow'
p279
I0
sS'man'
p280
I0
sS'a'
I0
sS'All'
p281
I0
sS'assassin'
p282
I0
sS'natural'
p283
I0
sS'remember'
p284
I0
sS'third'
p285
I0
sS'occasions'
p286
I0
sS'lines'
p287
I0
sS'Deep'
p288
I0
sS'element'
p289
I0
sS'castings'
p290
I1
sS'ones'
p291
I0
sS'so'
p292
I0
sS'south'
p293
I0
sS'shade'
p294
I0
sS'roused'
p295
I0
sS'worst'
p296
I0
sS'began'
p297
I0
sS'wind'
p298
I0
sS'wine'
p299
I0
sS'operations'
p300
I0
sS'What'
p301
I0
sS'pant'
p302
I1
sS'over'
p303
I0
sS'beak'
p304
I1
sS'rudiments'
p305
I1
sS'soon'
p306
I0
sS'years'
p307
I0
sS'Cully'
p308
I10
sS'held'
p309
I0
sS'wattle'
p310
I1
sS'through'
p311
I0
sS'left'
p312
I0
sS'mentioned'
p313
I0
sS'White'
p314
I0
sS'still'
p315
I0
sS'rufters'
p316
I1
sS'birds'
p317
I0
sS'before'
p318
I0
sS'scooting'
p319
I1
sS'Mews'
p320
I4
sS'fit'
p321
I0
sS'till'
p322
I0
sS'reluctant'
p323
I0
sS'fireplace'
p324
I0
sS'Here'
p325
I0
sS'better'
p326
I0
sS'Hie'
p327
I1
sS'perspiring'
p328
I1
sS'covered'
p329
I0
sS'hidden'
p330
I0
sS'easier'
p331
I0
sS'then'
p332
I0
sS'them'
p333
I0
sS'good'
p334
I0
sS'lunatic'
p335
I1
sS'press'
p336
I0
sS'weakness'
p337
I0
sS'disturb'
p338
I0
sS'delighted'
p339
I0
sS'often'
p340
I0
sS'Right'
p341
I0
sS'tails'
p342
I0
sS'She'
p343
I0
sS'SWORD'
p344
I2
sS'half'
p345
I0
sS'front'
p346
I0
sS'rotation'
p347
I0
sS'now'
p348
I0
sS'slats'
p349
I1
sS'day'
p350
I0
sS'galloping'
p351
I1
sS'Help'
p352
I0
sS'shadows'
p353
I0
sS'daub'
p354
I1
sS'Weedon'
p355
I1
sS'frayed'
p356
I0
sS'ENGLAND'
p357
I1
sS'name'
p358
I0
sS'Simple'
p359
I0
sS'always'
p360
I0
sS'assistants'
p361
I0
sS'sodden'
p362
I0
sS'did'
p363
I0
sS'theory'
p364
I0
sS'weather'
p365
I0
sS'each'
p366
I0
sS'crossing'
p367
I0
sS'found'
p368
I0
sS'went'
p369
I0
sS'side'
p370
I0
sS'mean'
p371
I0
sS'fare'
p372
I0
sS'doing'
p373
I0
sS'told'
p374
I0
sS'hard'
p375
I0
sS'skins'
p376
I0
sS'vote'
p377
I0
sS'used'
p378
I0
sS'doors'
p379
I0
sS'scratching'
p380
I0
sS'our'
p381
I0
sS'MISTRESS'
p382
I1
sS'beyond'
p383
I0
sS'hackle'
p384
I1
sS'special'
p385
I0
sS'out'
p386
I0
sS'inquired'
p387
I0
sS'MADE'
p388
I1
sS'opened'
p389
I0
sS'Very'
p390
I0
sS'nowadays'
p391
I0
sS'Wart'
p392
I13
sS'farm'
p393
I0
sS'laid'
p394
I0
sS'priest'
p395
I0
sS'wagon'
p396
I0
sS'got'
p397
I0
sS'marigold'
p398
I1
sS'sliding'
p399
I0
sS'red'
p400
I0
sS'Must'
p401
I0
sS'pitchforks'
p402
I1
sS'turning'
p403
I0
sS'crouched'
p404
I0
sS'This'
p405
I0
sS'threatened'
p406
I0
sS'given'
p407
I0
sS'cart'
p408
I0
sS'quite'
p409
I0
sS'attributed'
p410
I0
sS'rain'
p411
I0
sS'put'
p412
I0
sS'wanted'
p413
I0
sS'beginning'
p414
I0
sS'moult'
p415
I1
sS'enormous'
p416
I0
sS'drinking'
p417
I0
sS'Amo'
p418
I1
sS'shelves'
p419
I0
sS'could'
p420
I0
sS'keep'
p421
I0
sS'thing'
p422
I0
sS'length'
p423
I0
sS'tack'
p424
I0
sS'place'
p425
I0
sS'stamping'
p426
I0
sS'Pass'
p427
I0
sS'stone'
p428
I0
sS'castle'
p429
I0
sS'programme'
p430
I1
sS'caught'
p431
I0
sS'silver'
p432
I0
sS'first'
p433
I0
sS'sarcastically'
p434
I1
sS'cheese'
p435
I0
sS'flying'
p436
I0
sS'fetched'
p437
I1
sS'dont'
p438
I2
sS'slipped'
p439
I0
sS'blown'
p440
I0
sS'feel'
p441
I0
sS'There'
p442
I0
sS'one'
p443
I0
sS'feet'
p444
I0
sS'elder'
p445
I0
sS'Indian'
p446
I0
sS'un'
p447
I0
sS'sunlight'
p448
I0
sS'another'
p449
I0
sS'carry'
p450
I0
sS'fight'
p451
I0
sS'scent'
p452
I0
sS'startle'
p453
I1
sS'warm'
p454
I0
sS'little'
p455
I0
sS'heads'
p456
I0
sS'strict'
p457
I0
sS'twenty'
p458
I0
sS'top'
p459
I0
sS'hawks'
p460
I2
sS'pots'
p461
I0
sS'least'
p462
I0
sS'loaders'
p463
I1
sS'their'
p464
I0
sS'leash'
p465
I0
sS'maidens'
p466
I1
sS'tell'
p467
I0
sS'passed'
p468
I0
sS'wrapped'
p469
I0
sS'master'
p470
I0
sS'white'
p471
I0
sS'hundred'
p472
I0
sS'bits'
p473
I0
sS'dogs'
p474
I0
sS'friend'
p475
I0
sS'too'
p476
I0
sS'snuggery'
p477
I1
sS'eyes'
p478
I0
sS'muscles'
p479
I0
sS'eddicated'
p480
I1
sS'Splendid'
p481
I0
sS'that'
p482
I0
sS'shelf'
p483
I0
sS'sick'
p484
I0
sS'took'
p485
I0
sS'astrolabe'
p486
I1
sS'short'
p487
I0
sS'court'
p488
I0
sS'nurse'
p489
I0
sS'off'
p490
I0
sS'gad'
p491
I1
sS'than'
p492
I0
sS'uncut'
p493
I1
sS'splendid'
p494
I0
sS'distance'
p495
I0
sS'kind'
p496
I0
sS'moat'
p497
I2
sS'laundered'
p498
I1
sS'Saturdays'
p499
I0
sS'sword'
p500
I0
sS'Come'
p501
I0
sS'tree'
p502
I0
sS'grey'
p503
I0
sS'coats'
p504
I0
sS'hooligans'
p505
I3
sS'knives'
p506
I0
sS'were'
p507
I0
sS'flashes'
p508
I0
sS'Advertise'
p509
I1
sS'toward'
p510
I0
sS'sultry'
p511
I1
sS'result'
p512
I0
sS'and'
p513
I0
sS'bridge'
p514
I0
sS'buries'
p515
I1
sS'Court'
p516
I0
sS'wooded'
p517
I0
sS'handkerchief'
p518
I0
sS'remained'
p519
I0
sS'ran'
p520
I0
sS'plod'
p521
I1
sS'modern'
p522
I0
sS'mind'
p523
I0
sS'afternoons'
p524
I0
sS'spelled'
p525
I0
sS'anybody'
p526
I0
sS'say'
p527
I0
sS'Other'
p528
I0
sS'learnin'
p529
I1
sS'bathed'
p530
I0
sS'have'
p531
I0
sS'need'
p532
I0
sS'seen'
p533
I0
sS'seem'
p534
I0
sS'One'
p535
I0
sS'saw'
p536
I0
sS'any'
p537
I0
sS'sat'
p538
I0
sS'Then'
p539
I0
sS'afraid'
p540
I0
sS'\xbd'
I1
sS'bladed'
p541
I2
sS'After'
p542
I0
sS'able'
p543
I0
sS'arm'
p544
I0
sS'also'
p545
I0
sS'edge'
p546
I0
sS'take'
p547
I0
sS'They'
p548
I0
sS'Half'
p549
I0
sS'hoods'
p550
I3
sS'command'
p551
I0
sS'Happiest'
p552
I1
sS'taught'
p553
I0
sS'falconry'
p554
I1
sS'greatest'
p555
I0
sS'even'
p556
I0
sS'play'
p557
I0
sS'added'
p558
I0
sS'led'
p559
I0
sS'Have'
p560
I0
sS'yearned'
p561
I0
sS'Eventually'
p562
I0
sS'tallies'
p563
I0
sS'baize'
p564
I1
sS'who'
p565
I0
sS'Haec'
p566
I1
sS'most'
p567
I0
sS'Good'
p568
I0
sS'amas'
p569
I1
sS'thunder'
p570
I0
sS'The'
p571
I0
sS'prestige'
p572
I0
sS'archery'
p573
I1
sS'austringer'
p574
I1
sS'stupid'
p575
I0
sS'Whats'
p576
I1
sS'failure'
p577
I0
sS'windows'
p578
I0
sS'calling'
p579
I0
sS'Galapas'
p580
I1
sS'Fellow'
p581
I1
sS'looked'
p582
I0
sS'giving'
p583
I0
sS'scrambled'
p584
I0
sS'storm'
p585
I0
sS'sunset'
p586
I0
sS'clean'
p587
I0
sS'nailed'
p588
I0
sS'breathed'
p589
I0
sS'If'
p590
I0
sS'Its'
p591
I0
sS'fact'
p592
I0
sS'tiercels'
p593
I1
sS'Everybody'
p594
I0
sS'parklike'
p595
I1
sS'think'
p596
I0
sS'show'
p597
I0
sS'scampered'
p598
I1
sS'Had'
p599
I0
sS'anyway'
p600
I0
sS'perches'
p601
I1
sS'bring'
p602
I0
sS'bright'
p603
I0
sS'CANDLE'
p604
I1
sS'carefully'
p605
I0
sS'earth'
p606
I0
sS'rough'
p607
I0
sS'drawbridge'
p608
I2
sS'fine'
p609
I0
sS'find'
p610
I0
sS'ground'
p611
I0
sS'colours'
p612
I1
sS'We'
p613
I0
sS'rouse'
p614
I0
sS'just'
p615
I0
sS'folded'
p616
I0
sS'behind'
p617
I0
sS'unhappy'
p618
I0
sS'should'
p619
I0
sS'only'
p620
I0
sS'wood'
p621
I0
sS'rick'
p622
I3
sS'shivering'
p623
I0
sS'inferior'
p624
I0
sS'finger'
p625
I0
sS'giants'
p626
I0
sS'do'
p627
I0
sS'his'
p628
I0
sS'cartwheels'
p629
I0
sS'undecided'
p630
I1
sS'get'
p631
I0
sS'Grummores'
p632
I1
sS'H'
I0
sS'Ector'
p633
I22
sS'refreshed'
p634
I0
sS'sunny'
p635
I0
sS'trees'
p636
I0
sS'swing'
p637
I0
sS'workshop'
p638
I0
sS'grew'
p639
I0
sS'breast'
p640
I0
sS'altogether'
p641
I0
sS'during'
p642
I0
sS'THE'
p643
I10
sS'him'
p644
I0
sS'Once'
p645
I0
sS'Repetition'
p646
I1
sS'Astrology'
p647
I1
sS'joked'
p648
I2
sS'course'
p649
I0
sS'leather'
p650
I0
sS'fields'
p651
I0
sS'precedence'
p652
I0
sS'suggested'
p653
I0
sS'doubled'
p654
I0
sS'morning'
p655
I0
sS'Humberland'
p656
I1
sS'twice'
p657
I0
sS'bad'
p658
I0
sS'miles'
p659
I0
sS'brush'
p660
I0
sS'she'
p661
I0
sS'though'
p662
I0
sS'havin'
p663
I1
sS'river'
p664
I0
sS'where'
p665
I0
sS'nibbled'
p666
I1
sS'set'
p667
I0
sS'picnic'
p668
I0
sS'For'
p669
I0
sS'habit'
p670
I0
sS'throwing'
p671
I0
sS'nut'
p672
I0
sS'saddle'
p673
I0
sS'notice'
p674
I0
sS'see'
p675
I0
sS'decided'
p676
I0
sS'horse'
p677
I0
sS'are'
p678
I0
sS'sea'
p679
I0
sS'close'
p680
I0
sS'cold'
p681
I0
sS'best'
p682
I0
sS'feared'
p683
I0
sS'instance'
p684
I0
sS'said'
p685
I0
sS'Run'
p686
I0
sS'clearing'
p687
I0
sS'away'
p688
I0
sS'gentleman'
p689
I0
sS'shaved'
p690
I0
sS'its'
p691
I0
sS'Water'
p692
I0
sS'case'
p693
I0
sS'outside'
p694
I0
sS'Books'
p695
I0
sS'Wednesdays'
p696
I2
sS'closed'
p697
I0
sS'between'
p698
I0
sS'drawn'
p699
I0
sS'July'
p700
I0
sS'Merlins'
p701
I1
sS'across'
p702
I0
sS'mutes'
p703
I1
sS'King'
p704
I0
sS'we'
p705
I0
sS'involuntarily'
p706
I1
sS'horsemanship'
p707
I0
sS'vertical'
p708
I0
sS'Conays'
p709
I1
sS'rattle'
p710
I0
sS'screen'
p711
I0
sS'attention'
p712
I0
sS'metal'
p713
I0
sS'seemed'
p714
I0
sS'courtyard'
p715
I0
sS'strong'
p716
I0
sS'visited'
p717
I0
sS'picking'
p718
I0
sS'come'
p719
I0
sS'hacking'
p720
I0
sS'Thats'
p721
I3
sS'AND'
p722
I2
sS'Harn'
p723
I1
sS'commands'
p724
I0
sS'last'
p725
I0
sS'brown'
p726
I0
sS'sorts'
p727
I0
sS'country'
p728
I0
sS'ill'
p729
I0
sS'Blessed'
p730
I0
sS'against'
p731
I0
sS'temper'
p732
I0
sS'etc'
p733
I2
sS'eddication'
p734
I1
sS'forgotten'
p735
I0
sS'wheels'
p736
I0
sS'asked'
p737
I0
sS'Contents'
p738
I1
sS'wear'
p739
I0
sS'tongues'
p740
I0
sS'flies'
p741
I0
sS'afterwards'
p742
I0
sS'gone'
p743
I0
sS'reasons'
p744
I0
sS'Liber'
p745
I1
sS'ILL'
p746
I1
sS'stuck'
p747
I0
sS'teasing'
p748
I0
sS'whatever'
p749
I0
sS'village'
p750
I0
sS'loaded'
p751
I0
sS'Kays'
p752
I2
sS'Logicales'
p753
I1
sS'startling'
p754
I0
sS'roaring'
p755
I0
sS'villein'
p756
I1
sS'Get'
p757
I0
sS'west'
p758
I0
sS'three'
p759
I0
sS'But'
p760
I0
sS'mark'
p761
I0
sS'tutor'
p762
I1
sS'much'
p763
I0
sS'damn'
p764
I0
sS'hawking'
p765
I3
sS'acre'
p766
I0
sS'dame'
p767
I1
sS'wants'
p768
I0
sS'faced'
p769
I0
sS'life'
p770
I0
sS'shirts'
p771
I0
sS'anythin'
p772
I1
sS'both'
p773
I0
sS'face'
p774
I0
sS'hind'
p775
I0
sS'new'
p776
I0
sS'mine'
p777
I0
sS'sort'
p778
I0
sS'plumes'
p779
I1
sS'turf'
p780
I0
sS'understand'
p781
I0
sS'child'
p782
I0
sS'receive'
p783
I0
sS'worked'
p784
I0
sS'an'
p785
I0
sS'flashing'
p786
I0
sS'runnin'
p787
I2
sS'Advertiser'
p788
I1
sS'has'
p789
I0
sS'Old'
p790
I0
sS'Dont'
p791
I1
sS'toiled'
p792
I1
sS'these'
p793
I0
sS'caged'
p794
I1
sS'straight'
p795
I0
sS'chap'
p796
I1
sS'air'
p797
I0
sS'Eton'
p798
I2
sS'page_2'
p799
I1
sS'while'
p800
I0
sS'KNIGHT'
p801
I1
sS'College'
p802
I0
sS'ought'
p803
I0
sS'many'
p804
I0
sS'rhymed'
p805
I1
sS'cracked'
p806
I0
sS'voice'
p807
I0
sS'taking'
p808
I0
sS'Wicken'
p809
I1
sS'Bushes'
p810
I1
sS'seven'
p811
I0
sS'smacked'
p812
I0
sS'rap'
p813
I0
sS'sawdust'
p814
I0
sS'is'
p815
I0
sS'losing'
p816
I0
sS'it'
p817
I0
sS'AIR'
p818
I1
sS'Plantation'
p819
I0
sS'shame'
p820
I0
sS'cant'
p821
I1
sS'Wood'
p822
I0
sS'Grummore'
p823
I15
sS'in'
p824
I0
sS'walked'
p825
I0
sS'You'
p826
I0
sS'if'
p827
I0
sS'glared'
p828
I0
sS'different'
p829
I0
sS'shooting'
p830
I0
sS'LETTERS'
p831
I1
sS'fortification'
p832
I1
sS'parish'
p833
I0
sS'make'
p834
I0
sS'wound'
p835
I0
sS'same'
p836
I0
sS'benighted'
p837
I0
sS'parts'
p838
I0
sS'Of'
p839
I0
sS'Cardamum'
p840
I1
sS'showing'
p841
I0
sS'bells'
p842
I0
sS'austringers'
p843
I1
sS'strips'
p844
I0
sS'thunderbolt'
p845
I1
sS'itch'
p846
I0
sS'Do'
p847
I0
sS'I'
I0
sS'absorb'
p848
I0
sS'appearances'
p849
I0
sS'drink'
p850
I0
sS'oddments'
p851
I1
sS'hand'
p852
I0
sS'beast'
p853
I0
sS'moment'
p854
I0
sS'flown'
p855
I0
sS'arose'
p856
I0
sS'IN'
p857
I3
sS'insisted'
p858
I0
sS'nickname'
p859
I0
sS'mentioning'
p860
I0
sS'motionless'
p861
I0
sS'kept'
p862
I0
sS'older'
p863
I0
sS'bodied'
p864
I1
sS'floor'
p865
I0
sS'well'
p866
I0
sS'It'
p867
I0
sS'without'
p868
I0
sS'thought'
p869
I0
sS'cubbin'
p870
I1
sS'Im'
p871
I1
sS'WIND'
p872
I1
sS'bottle'
p873
I0
sS'In'
p874
I0
sS'very'
p875
I0
sS'hearts'
p876
I0
sS'the'
p877
I0
sS'hospital'
p878
I0
sS'bodies'
p879
I0
sS'T'
I0
sS'etiquette'
p880
I0
sS'they'
p881
I0
sS'cried'
p882
I0
sS'less'
p883
I0
sS'being'
p884
I0
sS'generally'
p885
I0
sS'armour'
p886
I1
sS'pitched'
p887
I0
sS'rest'
p888
I0
sS'bunch'
p889
I0
sS'not'
p890
I0
sS'rumbling'
p891
I0
sS'kill'
p892
I0
sS'HAVE'
p893
I1
sS'advertised'
p894
I0
sS'yet'
p895
I0
sS'Ought'
p896
I0
sS'mysterious'
p897
I0
sS'cut'
p898
I0
sS'lures'
p899
I1
sS'TO'
p900
I1
sS'hated'
p901
I0
sS'had'
p902
I0
sS'except'
p903
I0
sS'bench'
p904
I0
sS'hay'
p905
I0
sS'other'
p906
I0
sS'wet'
p907
I0
sS'eye'
p908
I0
sS'aerial'
p909
I0
sS'bread'
p910
I0
sS'kick'
p911
I0
sS'joke'
p912
I0
sS'real'
p913
I0
sS'On'
p914
I0
sS'explained'
p915
I0
sS'which'
p916
I0
sS'Oh'
p917
I0
sS'read'
p918
I0
sS'big'
p919
I0
sS'couple'
p920
I0
sS'evenings'
p921
I0
sS'masters'
p922
I0
sS'stools'
p923
I1
sS'dark'
p924
I0
sS'scraps'
p925
I0
sS'quest'
p926
I0
sS'five'
p927
I0
sS'know'
p928
I0
sS'knot'
p929
I0
sS'confined'
p930
I0
sS'England'
p931
I0
sS'bit'
p932
I0
sS'spiked'
p933
I0
sS'wings'
p934
I0
sS'dare'
p935
I0
sS'apart'
p936
I0
sS'shoulder'
p937
I0
sS'stuff'
p938
I0
sS'Art'
p939
I0
sS'like'
p940
I0
sS'lost'
p941
I0
sS'systematically'
p942
I0
sS'OF'
p943
I2
sS'lose'
p944
I0
sS'either'
p945
I0
sS'governess'
p946
I1
sS'BONES'
p947
I1
sS'soft'
p948
I0
sS'terminology'
p949
I0
sS'herons'
p950
I0
sS'STONE'
p951
I2
sS'because'
p952
I0
sS'old'
p953
I0
sS'hysterics'
p954
I1
sS'deal'
p955
I0
sS'people'
p956
I0
sS'narrow'
p957
I0
sS'obliged'
p958
I0
sS'Since'
p959
I0
sS'some'
p960
I0
sS'back'
p961
I0
sS'dead'
p962
I0
sS'hair'
p963
I0
sS'born'
p964
I0
sS'offer'
p965
I0
sS'sure'
p966
I0
sS'111'
p967
I0
sS'laughed'
p968
I0
sS'winds'
p969
I0
sS'thatched'
p970
I1
sS'proper'
p971
I0
sS'home'
p972
I0
sS'extended'
p973
I0
sS'Mary'
p974
I0
sS'gradually'
p975
I0
sS'leaf'
p976
I0
sS'for'
p977
I0
sS'stables'
p978
I0
sS'carts'
p979
I0
sS'drenched'
p980
I1
sS'Nobody'
p981
I0
sS'loved'
p982
I0
sS'does'
p983
I0
sS'passion'
p984
I0
sS'swooping'
p985
I0
sS'warned'
p986
I0
sS'Craye'
p987
I1
sS'judgment'
p988
I0
sS'doin'
p989
I0
sS'He'
p990
I0
sS'cord'
p991
I0
sS'be'
p992
I0
sS'knew'
p993
I0
sS'run'
p994
I0
sS'rapping'
p995
I0
sS'nails'
p996
I0
sS'night'
p997
I0
sS'Up'
p998
I0
sS'refused'
p999
I0
sS'hung'
p1000
I0
sS'although'
p1001
I0
sS'Bicester'
p1002
I1
sS'Ectors'
p1003
I5
sS'Newsman'
p1004
I1
sS'by'
p1005
I0
sS'wire'
p1006
I0
sS'on'
p1007
I0
sS'about'
p1008
I0
sS'carried'
p1009
I0
sS'anything'
p1010
I0
sS'getting'
p1011
I0
sS'of'
p1012
I0
sS'choppin'
p1013
I1
sS'whence'
p1014
I0
sS'Future'
p1015
I0
sS'Barley'
p1016
I1
sS'afternoon'
p1017
I0
sS'oxen'
p1018
I0
sS'upward'
p1019
I0
sS'or'
p1020
I0
sS'varvels'
p1021
I1
sS'undoing'
p1022
I0
sS'raised'
p1023
I0
sS'own'
p1024
I0
sS'chivalry'
p1025
I0
sS'scythes'
p1026
I1
sS'instruments'
p1027
I0
sS'into'
p1028
I0
sS'Two'
p1029
I0
sS'cauldron'
p1030
I1
sS'son'
p1031
I0
sS'down'
p1032
I0
sS'right'
p1033
I0
sS'movements'
p1034
I0
sS'been'
p1035
I0
sS'cultivated'
p1036
I0
sS'Utor'
p1037
I1
sS'foxhunting'
p1038
I1
sS'bellies'
p1039
I0
sS'softly'
p1040
I0
sS'knuckles'
p1041
I0
sS'worshipper'
p1042
I1
sS'her'
p1043
I0
sS'Incipit'
p1044
I1
sS'there'
p1045
I0
sS'question'
p1046
I0
sS'long'
p1047
I0
sS'Hand'
p1048
I0
sS'strip'
p1049
I0
sS'start'
p1050
I0
sS'noting'
p1051
I0
sS'way'
p1052
I0
sS'spar'
p1053
I1
sS':'
I0
sS'was'
p1054
I0
sS'trappings'
p1055
I0
sS'hoofs'
p1056
I0
sS'grooms'
p1057
I1
sS'fork'
p1058
I0
sS'head'
p1059
I0
sS'himself'
p1060
I0
sS'sacking'
p1061
I1
sS'enough'
p1062
I0
sS'gauntlets'
p1063
I2
sS'regard'
p1064
I0
sS'but'
p1065
I0
sS'boys'
p1066
I0
sS'properly'
p1067
I0
sS'ended'
p1068
I0
sS'ho'
p1069
I1
sS'solar'
p1070
I0
sS'learned'
p1071
I0
sS'sun'
p1072
I0
sS'line'
p1073
I0
sS'trying'
p1074
I0
sS'with'
p1075
I0
sS'he'
p1076
I0
sS'made'
p1077
I0
sS'whether'
p1078
I0
sS'inside'
p1079
I0
sS'up'
p1080
I0
sS'hurling'
p1081
I0
sS'work'
p1082
I0
sS'horseplay'
p1083
I0
sS'vanished'
p1084
I0
sS'BOOK'
p1085
I1
sS'cautiously'
p1086
I0
sS'Those'
p1087
I0
sS'Ah'
p1088
I0
sS'problem'
p1089
I0
sS'grass'
p1090
I0
sS'called'
p1091
I0
sS'advise'
p1092
I0
sS'Sir'
p1093
I0
sS'Vertigo'
p1094
I1
sS'Hob'
p1095
I3
sS'Hoc'
p1096
I1
sS'deaths'
p1097
I0
sS'certain'
p1098
I0
sS'moved'
p1099
I0
sS'direction'
p1100
I0
sS'fellow'
p1101
I0
sS'How'
p1102
I0
sS'as'
p1103
I0
sS'men'
p1104
I0
sS'at'
p1105
I0
sS'goodness'
p1106
I0
sS'pasture'
p1107
I0
sS'annoying'
p1108
I0
sS'mice'
p1109
I0
sS'again'
p1110
I0
sS'conies'
p1111
I1
sS'draughts'
p1112
I0
sS'goshawk'
p1113
I2
sS'excused'
p1114
I0
sS'no'
p1115
I0
sS'fencing'
p1116
I0
sS'peace'
p1117
I0
sS'when'
p1118
I0
sS'continually'
p1119
I0
sS'1111'
p1120
I2
sS'field'
p1121
I0
sS'Fridays'
p1122
I0
sS'Besides'
p1123
I0
sS'1440'
p1124
I1
sS'milking'
p1125
I2
sS'you'
p1126
I0
sS'really'
p1127
I0
sS'offered'
p1128
I0
sS'muddled'
p1129
I2
sS'winking'
p1130
I0
sS'surprise'
p1131
I0
sS'felt'
p1132
I0
sS'bundle'
p1133
I0
sS'prepared'
p1134
I0
sS'important'
p1135
I0
sS'fresh'
p1136
I0
sS'merlins'
p1137
I2
sS'Hunc'
p1138
I1
sS'sides'
p1139
I0
sS'lane'
p1140
I0
sS'today'
p1141
I0
sS'Grummursum'
p1142
I2
sS'calls'
p1143
I0
sS'questin'
p1144
I2
sS'came'
p1145
I0
sS'age'
p1146
I0
sS'lot'
p1147
I0
sS'together'
p1148
I0
sS'purple'
p1149
I0
sS'As'
p1150
I0
sS'shouted'
p1151
I0
sS'week'
p1152
I0
sS'At'
p1153
I0
sS'time'
p1154
I0
sS'STORIES'
p1155
I1
sS'Couldnt'
p1156
I1
sS'surprised'
p1157
I0
sS'having'
p1158
I0
sS'jerkins'
p1159
I1
sS'once'
p1160
I0
s.