(dp1
S'unmolested'
p2
I1
sS'gown'
p3
I0
sS'all'
p4
I0
sS'surrounded'
p5
I0
sS'chain'
p6
I0
sS'impression'
p7
I0
sS'caused'
p8
I0
sS'rod'
p9
I0
sS'worms'
p10
I0
sS'four'
p11
I0
sS'helped'
p12
I0
sS'sleep'
p13
I0
sS'sixpence'
p14
I1
sS'teapot'
p15
I1
sS'hanging'
p16
I0
sS'go'
p17
I0
sS'chair'
p18
I0
sS'children'
p19
I0
sS'seemed'
p20
I0
sS'whose'
p21
I0
sS'protest'
p22
I0
sS'feeding'
p23
I0
sS'airs'
p24
I0
sS'nutty'
p25
I1
sS'swam'
p26
I0
sS'instinctively'
p27
I0
sS'young'
p28
I0
sS'nose'
p29
I0
sS'properly'
p30
I0
sS'to'
p31
I0
sS'tail'
p32
I0
sS'teaspoon'
p33
I0
sS'under'
p34
I0
sS'Not'
p35
I0
sS'passion'
p36
I0
sS'sorry'
p37
I0
sS'Now'
p38
I0
sS'worth'
p39
I0
sS'sent'
p40
I0
sS'fancied'
p41
I0
sS'brown'
p42
I0
sS'breathing'
p43
I0
sS'wished'
p44
I0
sS'sitting'
p45
I0
sS'very'
p46
I0
sS'choice'
p47
I0
sS'every'
p48
I0
sS'nesting'
p49
I0
sS'headgear'
p50
I1
sS'cook'
p51
I0
sS'animals'
p52
I0
sS'trouble'
p53
I0
sS'wind'
p54
I0
sS'Dont'
p55
I1
sS'cheerful'
p56
I0
sS'school'
p57
I0
sS'scholar'
p58
I0
sS'stiff'
p59
I0
sS'did'
p60
I0
sS'fur'
p61
I0
sS'mild'
p62
I0
sS'large'
p63
I0
sS'solid'
p64
I0
sS'succession'
p65
I0
sS'small'
p66
I0
sS'tear'
p67
I0
sS'scaly'
p68
I1
sS'round'
p69
I0
sS'personal'
p70
I0
sS'concluded'
p71
I0
sS'dyou'
p72
I2
sS'corkindrill'
p73
I1
sS'marred'
p74
I0
sS'regret'
p75
I0
sS'Winchester'
p76
I0
sS'thin'
p77
I0
sS'squirrels'
p78
I1
sS'queer'
p79
I0
sS'feathers'
p80
I0
sS'sensation'
p81
I0
sS'boots'
p82
I0
sS'horn'
p83
I0
sS'jump'
p84
I0
sS'Only'
p85
I0
sS'cost'
p86
I0
sS'worn'
p87
I0
sS'earth'
p88
I0
sS'nests'
p89
I1
sS'hopefully'
p90
I0
sS'wings'
p91
I0
sS'creatures'
p92
I0
sS'blue'
p93
I0
sS'nothing'
p94
I0
sS'what'
p95
I0
sS'stood'
p96
I0
sS'forgetting'
p97
I0
sS'sun'
p98
I0
sS'probably'
p99
I0
sS'ended'
p100
I0
sS'napkins'
p101
I0
sS'above'
p102
I0
sS'conduct'
p103
I0
sS'tarantula'
p104
I2
sS';'
I0
sS'ever'
p105
I0
sS'bird'
p106
I0
sS'can'
p107
I0
sS'full'
p108
I0
sS'led'
p109
I0
sS'soothed'
p110
I0
sS'never'
p111
I0
sS'interested'
p112
I0
sS'here'
p113
I0
sS'water'
p114
I0
sS'met'
p115
I0
sS'filmed'
p116
I0
sS'china'
p117
I0
sS'unsharpened'
p118
I1
sS'meet'
p119
I0
sS'alone'
p120
I0
sS'along'
p121
I0
sS'invented'
p122
I0
sS'My'
p123
I0
sS'change'
p124
I0
sS'puss'
p125
I1
sS'box'
p126
I0
sS'boy'
p127
I0
sS'great'
p128
I0
sS'balance'
p129
I0
sS'BULLDOG'
p130
I1
sS'leaves'
p131
I0
sS'Dalziel'
p132
I1
sS'shoulders'
p133
I0
sS'step'
p134
I0
sS'yourself'
p135
I0
sS'drawers'
p136
I0
sS'cinnamon'
p137
I1
sS'smoke'
p138
I0
sS'nervous'
p139
I0
sS'action'
p140
I0
sS'symmetrical'
p141
I0
sS'suitable'
p142
I0
sS'makes'
p143
I0
sS'wiped'
p144
I0
sS'contained'
p145
I0
sS'secure'
p146
I0
sS'turkey'
p147
I0
sS'Whereever'
p148
I1
sS'explained'
p149
I0
sS'When'
p150
I0
sS'angrily'
p151
I0
sS'Yik'
p152
I4
sS'emptied'
p153
I0
sS'ask'
p154
I0
sS'pound'
p155
I0
sS'drowned'
p156
I0
sS'stern'
p157
I0
sS'doubtfully'
p158
I0
sS'plate'
p159
I0
sS'bindings'
p160
I1
sS'swallowed'
p161
I0
sS'truly'
p162
I0
sS'standing'
p163
I0
sS'Drat'
p164
I1
sS'from'
p165
I0
sS'spoke'
p166
I0
sS'would'
p167
I0
sS'fingernails'
p168
I0
sS'angry'
p169
I0
sS'faint'
p170
I0
sS'two'
p171
I0
sS'lignum'
p172
I1
sS'stepped'
p173
I0
sS'few'
p174
I0
sS'live'
p175
I0
sS'call'
p176
I0
sS'vanished'
p177
I0
sS'bitterly'
p178
I0
sS'taken'
p179
I0
sS'Immediately'
p180
I0
sS'themselves'
p181
I0
sS'until'
p182
I0
sS'more'
p183
I0
sS'scratched'
p184
I0
sS'pencil'
p185
I0
sS'door'
p186
I0
sS'flap'
p187
I1
sS'These'
p188
I0
sS'company'
p189
I0
sS'stable'
p190
I0
sS'Chol'
p191
I1
sS'pairs'
p192
I0
sS'antennae'
p193
I0
sS'chocolate'
p194
I0
sS'thatch'
p195
I1
sS'glass'
p196
I0
sS'ate'
p197
I0
sS'So'
p198
I0
sS'stick'
p199
I0
sS'rabbit'
p200
I0
sS'Time'
p201
I0
sS'known'
p202
I0
sS'cabalistic'
p203
I1
sS'hole'
p204
I0
sS'hold'
p205
I0
sS'companys'
p206
I1
sS'rewake'
p207
I1
sS'must'
p208
I0
sS'me'
p209
I0
sS'cloisonne'
p210
I1
sS'none'
p211
I0
sS'crosses'
p212
I0
sS'join'
p213
I0
sS'room'
p214
I0
sS'hour'
p215
I0
sS'pushed'
p216
I0
sS'this'
p217
I0
sS'thousands'
p218
I0
sS'cap'
p219
I0
sS'roof'
p220
I0
sS'itself'
p221
I0
sS'nine'
p222
I0
sS'Pellinore'
p223
I3
sS'learn'
p224
I0
sS'making'
p225
I0
sS'shaving'
p226
I0
sS'my'
p227
I0
sS'Your'
p228
I0
sS'ladys'
p229
I1
sS'something'
p230
I0
sS'heart'
p231
I0
sS'crazy'
p232
I0
sS'wand'
p233
I1
sS'give'
p234
I0
sS'reach'
p235
I0
sS'confused'
p236
I0
sS'pieces'
p237
I0
sS'high'
p238
I0
sS'heard'
p239
I0
sS'slit'
p240
I0
sS'heaving'
p241
I0
sS'dropped'
p242
I0
sS'want'
p243
I0
sS'allowed'
p244
I0
sS'bones'
p245
I0
sS'hit'
p246
I0
sS'yet'
p247
I0
sS'impressed'
p248
I0
sS'axis'
p249
I0
sS'sir'
p250
I0
sS'end'
p251
I0
sS'knows'
p252
I0
sS'sit'
p253
I0
sS'rather'
p254
I0
sS'divided'
p255
I0
sS'six'
p256
I0
sS'damage'
p257
I0
sS'stayed'
p258
I0
sS'Beast'
p259
I1
sS'how'
p260
I0
sS'hopped'
p261
I0
sS'dunces'
p262
I1
sS'silent'
p263
I0
sS'forest'
p264
I0
sS'tippets'
p265
I1
sS'gate'
p266
I0
sS'ordinary'
p267
I0
sS'Are'
p268
I0
sS'play'
p269
I0
sS'A'
I0
sS'hearted'
p270
I1
sS'tried'
p271
I0
sS'rude'
p272
I0
sS'mess'
p273
I0
sS'ladder'
p274
I0
sS'after'
p275
I0
sS'different'
p276
I0
sS'sparkled'
p277
I1
sS'mother'
p278
I0
sS'wrong'
p279
I0
sS'lot'
p280
I0
sS'scratch'
p281
I0
sS'leisure'
p282
I0
sS'curiosity'
p283
I0
sS'coming'
p284
I0
sS'such'
p285
I0
sS'horizontal'
p286
I0
sS'hawk'
p287
I0
sS'meerschaum'
p288
I1
sS'mushrooms'
p289
I0
sS'man'
p290
I0
sS'a'
I0
sS'All'
p291
I0
sS'remember'
p292
I0
sS'liquid'
p293
I0
sS'light'
p294
I0
sS'amuse'
p295
I0
sS'noises'
p296
I0
sS'cutlery'
p297
I1
sS'owls'
p298
I4
sS'castings'
p299
I1
sS'ones'
p300
I0
sS'so'
p301
I0
sS'waited'
p302
I0
sS'politer'
p303
I1
sS'make'
p304
I0
sS'talk'
p305
I0
sS'kindness'
p306
I0
sS'What'
p307
I0
sS'pipe'
p308
I0
sS'MIN'
p309
I1
sS'indeed'
p310
I0
sS'over'
p311
I0
sS'altogether'
p312
I0
sS'constable'
p313
I1
sS'years'
p314
I0
sS'Cully'
p315
I2
sS'held'
p316
I0
sS'rounder'
p317
I2
sS'paper'
p318
I0
sS'through'
p319
I0
sS'crumbs'
p320
I1
sS'signs'
p321
I0
sS'cold'
p322
I0
sS'still'
p323
I0
sS'nets'
p324
I0
sS'its'
p325
I0
sS'before'
p326
I0
sS'perfect'
p327
I0
sS'solitary'
p328
I0
sS'His'
p329
I0
sS'20'
p330
I0
sS'ruder'
p331
I1
sS'absurdest'
p332
I1
sS'reluctance'
p333
I0
sS'hot'
p334
I0
sS'Here'
p335
I0
sS'better'
p336
I0
sS'spoken'
p337
I0
sS'window'
p338
I0
sS'Quest'
p339
I1
sS'ruffle'
p340
I1
sS'Bubbles'
p341
I1
sS'main'
p342
I0
sS'might'
p343
I0
sS'Grace'
p344
I0
sS'happened'
p345
I0
sS'fool'
p346
I0
sS'then'
p347
I0
sS'them'
p348
I0
sS'good'
p349
I0
sS'geographical'
p350
I0
sS'3'
I0
sS'sounded'
p351
I0
sS'flew'
p352
I0
sS'break'
p353
I0
sS'gracious'
p354
I0
sS'touching'
p355
I0
sS'retorts'
p356
I1
sS'wise'
p357
I0
sS'they'
p358
I0
sS'half'
p359
I0
sS'front'
p360
I0
sS'now'
p361
I0
sS'grudgingly'
p362
I0
sS'Mastic'
p363
I1
sS'gets'
p364
I0
sS'cotton'
p365
I0
sS'name'
p366
I0
sS'sixths'
p367
I1
sS'always'
p368
I0
sS'sleepless'
p369
I1
sS'Why'
p370
I0
sS'Olly'
p371
I1
sS'benevolent'
p372
I0
sS'Say'
p373
I0
sS'piping'
p374
I0
sS'stopped'
p375
I0
sS'leaned'
p376
I0
sS'each'
p377
I0
sS'found'
p378
I0
sS'went'
p379
I0
sS'pismires'
p380
I1
sS'nibbles'
p381
I1
sS'Poli'
p382
I1
sS'mean'
p383
I0
sS'lie'
p384
I0
sS'lifted'
p385
I0
sS'cry'
p386
I0
sS'hark'
p387
I1
sS'upstairs'
p388
I0
sS'doing'
p389
I0
sS'train'
p390
I0
sS'winked'
p391
I0
sS'poker'
p392
I0
sS'goose'
p393
I1
sS'Wol'
p394
I1
sS'books'
p395
I0
sS'forgot'
p396
I0
sS'our'
p397
I0
sS'happen'
p398
I0
sS'thing'
p399
I0
sS'special'
p400
I0
sS'out'
p401
I0
sS'living'
p402
I0
sS'opened'
p403
I0
sS'bubble'
p404
I0
sS'Very'
p405
I0
sS'sourly'
p406
I0
sS'Wart'
p407
I34
sS'since'
p408
I0
sS'forty'
p409
I0
sS'looking'
p410
I0
sS'keys'
p411
I0
sS'laid'
p412
I0
sS'fountain'
p413
I0
sS'hearken'
p414
I1
sS'cows'
p415
I0
sS'print'
p416
I0
sS'got'
p417
I0
sS'protected'
p418
I0
sS'Hold'
p419
I0
sS'waters'
p420
I0
sS'red'
p421
I0
sS'fricassee'
p422
I1
sS'seem'
p423
I0
sS'shut'
p424
I0
sS'bald'
p425
I0
sS'turning'
p426
I0
sS'love'
p427
I0
sS'written'
p428
I0
sS'This'
p429
I0
sS'sideways'
p430
I0
sS'Clank'
p431
I1
sS'quite'
p432
I0
sS'cut'
p433
I0
sS'base'
p434
I0
sS'splashes'
p435
I0
sS'W'
I0
sS'put'
p436
I0
sS'marvellous'
p437
I1
sS'saying'
p438
I0
sS'enormous'
p439
I0
sS'backwards'
p440
I1
sS'reply'
p441
I0
sS'shelves'
p442
I0
sS'cauldrons'
p443
I1
sS'courteous'
p444
I0
sS'could'
p445
I0
sS'Roman'
p446
I0
sS'whatever'
p447
I0
sS'keep'
p448
I0
sS'conversation'
p449
I0
sS'youll'
p450
I1
sS'place'
p451
I0
sS'twenty'
p452
I0
sS'tied'
p453
I0
sS'stone'
p454
I0
sS'castle'
p455
I0
sS'vanquish'
p456
I1
sS'footsteps'
p457
I0
sS'think'
p458
I0
sS'remorseful'
p459
I1
sS'first'
p460
I0
sS'shave'
p461
I0
sS'already'
p462
I0
sS'gazed'
p463
I0
sS'dont'
p464
I3
sS'forwards'
p465
I3
sS'prevent'
p466
I0
sS'feel'
p467
I0
sS'wasp'
p468
I1
sS'There'
p469
I0
sS'patience'
p470
I0
sS'mutes'
p471
I1
sS'one'
p472
I0
sS'feet'
p473
I0
sS'BUCKINGHAM'
p474
I1
sS'Indian'
p475
I0
sS'done'
p476
I0
sS'another'
p477
I0
sS'carry'
p478
I0
sS'scissors'
p479
I1
sS'cameleopard'
p480
I1
sS'cups'
p481
I0
sS'thousand'
p482
I0
sS'several'
p483
I0
sS'warm'
p484
I0
sS'take'
p485
I0
sS'clanking'
p486
I1
sS'little'
p487
I0
sS'afterthought'
p488
I1
sS'paint'
p489
I0
sS'together'
p490
I0
sS'top'
p491
I0
sS'habit'
p492
I0
sS'silver'
p493
I0
sS'neatly'
p494
I0
sS'tusks'
p495
I0
sS'their'
p496
I0
sS'wing'
p497
I0
sS'2'
I0
sS'master'
p498
I0
sS'too'
p499
I0
sS'stuffed'
p500
I0
sS'white'
p501
I0
sS'legs'
p502
I0
sS'bits'
p503
I0
sS'Encyclopaedia'
p504
I1
sS'beard'
p505
I0
sS'larder'
p506
I1
sS'eyes'
p507
I0
sS'stars'
p508
I0
sS'that'
p509
I0
sS'season'
p510
I0
sS'rubbing'
p511
I0
sS'nobody'
p512
I0
sS'took'
p513
I0
sS'wisdom'
p514
I0
sS'formalities'
p515
I0
sS'astrolabe'
p516
I1
sS'ridiculous'
p517
I0
sS'unwinking'
p518
I1
sS'guncase'
p519
I1
sS'kept'
p520
I0
sS'believe'
p521
I0
sS'than'
p522
I0
sS'kind'
p523
I0
sS'grew'
p524
I0
sS'kindly'
p525
I0
sS'showed'
p526
I0
sS'Come'
p527
I0
sS'loud'
p528
I0
sS'needles'
p529
I0
sS'second'
p530
I0
sS'exclaimed'
p531
I0
sS'spider'
p532
I0
sS'friend'
p533
I0
sS'were'
p534
I0
sS'cards'
p535
I0
sS'toward'
p536
I0
sS'strut'
p537
I0
sS'Is'
p538
I0
sS'nuzzling'
p539
I1
sS'and'
p540
I0
sS'donkey'
p541
I1
sS'puzzling'
p542
I0
sS'oclock'
p543
I1
sS'nicer'
p544
I1
sS'remained'
p545
I0
sS'ran'
p546
I0
sS'Mind'
p547
I1
sS'shyly'
p548
I0
sS'pass'
p549
I0
sS'turned'
p550
I0
sS'gently'
p551
I0
sS'voices'
p552
I0
sS'talking'
p553
I0
sS'say'
p554
I0
sS'beehive'
p555
I1
sS'manner'
p556
I0
sS'have'
p557
I0
sS'Spar'
p558
I1
sS'curved'
p559
I0
sS'breakfast'
p560
I0
sS'aged'
p561
I0
sS'saw'
p562
I0
sS'any'
p563
I0
sS'Gos'
p564
I1
sS'dozen'
p565
I0
sS'lid'
p566
I0
sS'Then'
p567
I0
sS'built'
p568
I0
sS'HRS'
p569
I1
sS'convenient'
p570
I0
sS'burgling'
p571
I1
sS'reverie'
p572
I1
sS'gingerly'
p573
I0
sS'HOUNDS'
p574
I1
sS'also'
p575
I0
sS'chest'
p576
I0
sS'causing'
p577
I0
sS'lip'
p578
I0
sS'reputed'
p579
I0
sS'They'
p580
I0
sS'streaked'
p581
I0
sS'finding'
p582
I0
sS'With'
p583
I0
sS'soap'
p584
I0
sS'OTTER'
p585
I1
sS'even'
p586
I0
sS'begin'
p587
I0
sS'added'
p588
I0
sS'unless'
p589
I0
sS'bottle'
p590
I0
sS'tobacco'
p591
I0
sS'though'
p592
I0
sS'popular'
p593
I0
sS'eggs'
p594
I0
sS'who'
p595
I0
sS'salmon'
p596
I1
sS'cigarette'
p597
I0
sS'courtesy'
p598
I0
sS'Good'
p599
I0
sS'mouth'
p600
I0
sS'plenty'
p601
I0
sS'tall'
p602
I0
sS'pair'
p603
I0
sS'goshawk'
p604
I1
sS'The'
p605
I0
sS'medal'
p606
I0
sS'why'
p607
I0
sS'mantelpiece'
p608
I1
sS'refreshing'
p609
I0
sS'cloth'
p610
I0
sS'foot'
p611
I0
sS'bracken'
p612
I1
sS'whirling'
p613
I0
sS'gather'
p614
I0
sS'Some'
p615
I0
sS'hungry'
p616
I0
sS'breathes'
p617
I0
sS'face'
p618
I0
sS'looked'
p619
I0
sS'scrambled'
p620
I0
sS'lowered'
p621
I0
sS'knew'
p622
I0
sS'clean'
p623
I0
sS'sorts'
p624
I0
sS'rattling'
p625
I0
sS'If'
p626
I0
sS'came'
p627
I0
sS'slope'
p628
I0
sS'perch'
p629
I2
sS'particularly'
p630
I0
sS'gold'
p631
I0
sS'rapture'
p632
I0
sS'please'
p633
I0
sS'burners'
p634
I0
sS'droppings'
p635
I2
sS'peaches'
p636
I2
sS'incense'
p637
I0
sS'bright'
p638
I0
sS'bedroom'
p639
I0
sS'telling'
p640
I0
sS'corner'
p641
I0
sS'chicken'
p642
I0
sS'longer'
p643
I0
sS'find'
p644
I0
sS'ground'
p645
I0
sS'toast'
p646
I0
sS'nearer'
p647
I0
sS'We'
p648
I0
sS'trying'
p649
I0
sS'just'
p650
I0
sS'('
I0
sS'square'
p651
I0
sS'folded'
p652
I0
sS'enough'
p653
I0
sS'unhappy'
p654
I0
sS'should'
p655
I0
sS'gulp'
p656
I0
sS'only'
p657
I0
sS'going'
p658
I0
sS'black'
p659
I0
sS'oil'
p660
I0
sS'AWE'
p661
I1
sS'wool'
p662
I0
sS'shrill'
p663
I0
sS'pointed'
p664
I0
sS'personality'
p665
I0
sS'lighted'
p666
I0
sS'do'
p667
I0
sS'clank'
p668
I2
sS'his'
p669
I0
sS'handle'
p670
I0
sS'goes'
p671
I0
sS'get'
p672
I0
sS'lobe'
p673
I0
sS'familiar'
p674
I0
sS'Ector'
p675
I1
sS'flowing'
p676
I0
sS'lucky'
p677
I0
sS'trees'
p678
I0
sS'soon'
p679
I0
sS'Archimedes'
p680
I7
sS'anxious'
p681
I0
sS'nearly'
p682
I0
sS'closely'
p683
I0
sS'beak'
p684
I4
sS'nicely'
p685
I0
sS'varnish'
p686
I1
sS'doubtful'
p687
I0
sS'him'
p688
I0
sS'unfortunately'
p689
I0
sS'intended'
p690
I0
sS'conglomerations'
p691
I1
sS'moonlight'
p692
I0
sS'cries'
p693
I0
sS'leather'
p694
I0
sS'shy'
p695
I0
sS'Over'
p696
I0
sS'anxiously'
p697
I0
sS'mounted'
p698
I0
sS'bad'
p699
I0
sS'miles'
p700
I0
sS'basilisk'
p701
I1
sS'she'
p702
I0
sS'eventually'
p703
I0
sS'grilled'
p704
I0
sS'rapped'
p705
I0
sS'told'
p706
I0
sS'where'
p707
I0
sS'nibbled'
p708
I2
sS'rooms'
p709
I0
sS'muddled'
p710
I1
sS'toe'
p711
I0
sS'set'
p712
I0
sS'farthest'
p713
I0
sS'King'
p714
I0
sS'smooth'
p715
I0
sS'mind'
p716
I0
sS'turf'
p717
I0
sS'nibble'
p718
I1
sS'notice'
p719
I0
sS'edition'
p720
I0
sS'see'
p721
I0
sS'decided'
p722
I0
sS'asleep'
p723
I0
sS'are'
p724
I0
sS'violet'
p725
I0
sS'salutation'
p726
I1
sS'close'
p727
I0
sS'resigned'
p728
I0
sS'skulls'
p729
I0
sS'best'
p730
I0
sS'barn'
p731
I0
sS'closer'
p732
I0
sS'instance'
p733
I0
sS'said'
p734
I0
sS'That'
p735
I0
sS'mine'
p736
I0
sS'clearing'
p737
I0
sS'away'
p738
I0
sS'gentleman'
p739
I0
sS'stealthy'
p740
I1
sS'birds'
p741
I0
sS'weapons'
p742
I0
sS'case'
p743
I0
sS'behind'
p744
I0
sS'smallest'
p745
I0
sS'various'
p746
I0
sS'finger'
p747
I0
sS'closed'
p748
I0
sS'between'
p749
I0
sS'drawn'
p750
I0
sS'July'
p751
I0
sS'bellies'
p752
I0
sS'kidneys'
p753
I0
sS'discovery'
p754
I0
sS'darning'
p755
I1
sS'claws'
p756
I0
sS'we'
p757
I0
sS'men'
p758
I0
sS'labelled'
p759
I0
sS'rolled'
p760
I0
sS'rock'
p761
I0
sS'libbards'
p762
I1
sS'generous'
p763
I0
sS'ignorance'
p764
I0
sS'blinked'
p765
I0
sS'Merlyn'
p766
I22
sS'coffee'
p767
I0
sS'aquarium'
p768
I1
sS'whispered'
p769
I0
sS'carbon'
p770
I0
sS'puzzled'
p771
I0
sS'let'
p772
I0
sS'come'
p773
I0
sS'kingfishers'
p774
I1
sS'staring'
p775
I0
sS'hours'
p776
I0
sS'goddess'
p777
I0
sS'Peter'
p778
I0
sS'last'
p779
I0
sS'hung'
p780
I0
sS'taking'
p781
I0
sS'inclined'
p782
I0
sS'recorders'
p783
I1
sS'against'
p784
I0
sS'etc'
p785
I2
sS'became'
p786
I0
sS'forgotten'
p787
I0
sS'boiling'
p788
I0
sS'Yes'
p789
I0
sS'expression'
p790
I0
sS'asked'
p791
I0
sS'among'
p792
I0
sS'liked'
p793
I0
sS'Would'
p794
I0
sS'gone'
p795
I0
sS'appeared'
p796
I0
sS'sweet'
p797
I0
sS'pot'
p798
I0
sS'others'
p799
I0
sS'manners'
p800
I0
sS'ants'
p801
I0
sS'hoarse'
p802
I0
sS'Finally'
p803
I0
sS'stretched'
p804
I0
sS'news'
p805
I0
sS'table'
p806
I0
sS'trust'
p807
I0
sS'stroking'
p808
I0
sS'beats'
p809
I0
sS'speak'
p810
I0
sS'muttered'
p811
I0
sS'finally'
p812
I0
sS'petty'
p813
I0
sS'bitter'
p814
I0
sS'scented'
p815
I0
sS'muddy'
p816
I0
sS'three'
p817
I0
sS'But'
p818
I0
sS'quickly'
p819
I0
sS'breath'
p820
I0
sS'fowl'
p821
I1
sS'much'
p822
I0
sS'slowly'
p823
I0
sS'vitae'
p824
I1
sS'Mandrake'
p825
I1
sS'crows'
p826
I1
sS'lovely'
p827
I0
sS'hardly'
p828
I0
sS'dots'
p829
I0
sS'field'
p830
I0
sS'life'
p831
I0
sS'lived'
p832
I0
sS'deeper'
p833
I0
sS'fire'
p834
I0
sS'moved'
p835
I0
sS'offered'
p836
I0
sS'wires'
p837
I0
sS'else'
p838
I0
sS'sort'
p839
I0
sS'finished'
p840
I0
sS'electric'
p841
I0
sS'awake'
p842
I0
sS'turn'
p843
I0
sS'catch'
p844
I0
sS'clouded'
p845
I0
sS'chickens'
p846
I0
sS'those'
p847
I0
sS'Ovis'
p848
I1
sS'And'
p849
I0
sS'Old'
p850
I0
sS'look'
p851
I0
sS'planetarium'
p852
I1
sS'these'
p853
I0
sS'slept'
p854
I0
sS'GRAFTON'
p855
I1
sS'twigs'
p856
I1
sS'single'
p857
I0
sS'air'
p858
I0
sS'will'
p859
I0
sS'Wash'
p860
I1
sS'while'
p861
I0
sS'shallow'
p862
I0
sS'pressed'
p863
I0
sS'leaning'
p864
I0
sS'wild'
p865
I0
sS'popinjays'
p866
I1
sS'voice'
p867
I0
sS'study'
p868
I0
sS'Mandragora'
p869
I1
sS'listen'
p870
I0
sS'cylinder'
p871
I0
sS'climbed'
p872
I0
sS'fourteenth'
p873
I0
sS'beetles'
p874
I1
sS'moth'
p875
I1
sS'is'
p876
I0
sS'purse'
p877
I0
sS'it'
p878
I0
sS'surface'
p879
I0
sS'embroidered'
p880
I0
sS'Looking'
p881
I0
sS'middle'
p882
I0
sS'cant'
p883
I1
sS'tiny'
p884
I0
sS'demanded'
p885
I0
sS'in'
p886
I0
sS'ready'
p887
I0
sS'truncheon'
p888
I1
sS'You'
p889
I0
sS'Athene'
p890
I1
sS'mouse'
p891
I0
sS'concentration'
p892
I0
sS'trusted'
p893
I0
sS'if'
p894
I0
sS'peacocks'
p895
I0
sS'damaged'
p896
I0
sS'corkindrills'
p897
I2
sS'horrible'
p898
I0
sS'Post'
p899
I0
sS')'
I0
sS'things'
p900
I0
sS'began'
p901
I0
sS'woodland'
p902
I1
sS'beside'
p903
I0
sS'Excuse'
p904
I0
sS'trout'
p905
I1
sS'buffoon'
p906
I1
sS'offence'
p907
I1
sS'plates'
p908
I0
sS'foxs'
p909
I1
sS'sat'
p910
I0
sS'Questing'
p911
I1
sS'difficult'
p912
I0
sS'tree'
p913
I0
sS'About'
p914
I0
sS'extended'
p915
I0
sS'waddled'
p916
I2
sS'scarcely'
p917
I0
sS'Do'
p918
I0
sS'I'
I0
sS'nest'
p919
I0
sS'Merlyns'
p920
I3
sS'oddments'
p921
I1
sS'hand'
p922
I0
sS'fringed'
p923
I0
sS'moment'
p924
I0
sS'prickled'
p925
I1
sS'purpose'
p926
I0
sS'Bristol'
p927
I0
sS'guardians'
p928
I0
sS'splashed'
p929
I0
sS'magician'
p930
I1
sS'opportunity'
p931
I0
sS'greedily'
p932
I1
sS'faithful'
p933
I0
sS'Archie'
p934
I2
sS'early'
p935
I0
sS'instead'
p936
I0
sS'off'
p937
I0
sS'whole'
p938
I0
sS'colour'
p939
I2
sS'floor'
p940
I0
sS'well'
p941
I0
sS'It'
p942
I0
sS'thought'
p943
I0
sS'patterns'
p944
I0
sS'without'
p945
I0
sS'Have'
p946
I0
sS'corkscrews'
p947
I1
sS'tasted'
p948
I0
sS'worried'
p949
I0
sS'the'
p950
I0
sS'mislaid'
p951
I1
sS'drawing'
p952
I0
sS'left'
p953
I0
sS'rusks'
p954
I1
sS'summer'
p955
I0
sS'oleander'
p956
I1
sS'cried'
p957
I0
sS'maggot'
p958
I1
sS'being'
p959
I0
sS'tip'
p960
I0
sS'armour'
p961
I1
sS'skin'
p962
I0
sS'morsel'
p963
I0
sS'flies'
p964
I0
sS'not'
p965
I0
sS'rafters'
p966
I1
sS'fishing'
p967
I0
sS'questions'
p968
I0
sS'world'
p969
I0
sS'followed'
p970
I0
sS'yes'
p971
I0
sS'metallic'
p972
I0
sS'rimmed'
p973
I0
sS'boars'
p974
I1
sS'spectacles'
p975
I1
sS'dipped'
p976
I0
sS'TO'
p977
I1
sS'thinking'
p978
I0
sS'furry'
p979
I1
sS'had'
p980
I0
sS'except'
p981
I0
sS'counted'
p982
I0
sS'hall'
p983
I0
sS'suddenly'
p984
I0
sS'lets'
p985
I0
sS'book'
p986
I0
sS'easy'
p987
I0
sS'unending'
p988
I0
sS'quick'
p989
I0
sS'has'
p990
I0
sS'hat'
p991
I0
sS'By'
p992
I0
sS'gave'
p993
I0
sS'real'
p994
I0
sS'propped'
p995
I0
sS'Mans'
p996
I1
sS'which'
p997
I0
sS'tenses'
p998
I1
sS'Oh'
p999
I0
sS'sailors'
p1000
I0
sS'big'
p1001
I0
sS'bid'
p1002
I0
sS'tawny'
p1003
I0
sS'knobbly'
p1004
I1
sS'possible'
p1005
I0
sS'Britannica'
p1006
I1
sS'dark'
p1007
I0
sS'possibly'
p1008
I0
sS'boxes'
p1009
I0
sS'shouted'
p1010
I0
sS'five'
p1011
I0
sS'know'
p1012
I0
sS'politely'
p1013
I0
sS'inhabitants'
p1014
I0
sS'immediately'
p1015
I0
sS'bit'
p1016
I0
sS'lady'
p1017
I0
sS'Or'
p1018
I0
sS'globes'
p1019
I1
sS'vanity'
p1020
I0
sS'shoulder'
p1021
I0
sS'fossils'
p1022
I1
sS'like'
p1023
I0
sS'lost'
p1024
I0
sS'devilled'
p1025
I1
sS'waddling'
p1026
I1
sS'smell'
p1027
I0
sS'seek'
p1028
I0
sS'shaped'
p1029
I0
sS'chamber'
p1030
I0
sS'snug'
p1031
I0
sS'storeroom'
p1032
I1
sS'either'
p1033
I0
sS'corners'
p1034
I0
sS'bunch'
p1035
I0
sS'reams'
p1036
I0
sS'Morning'
p1037
I0
sS'blades'
p1038
I0
sS'soft'
p1039
I0
sS'sign'
p1040
I0
sS'sharp'
p1041
I0
sS'twelve'
p1042
I0
sS'right'
p1043
I0
sS'old'
p1044
I0
sS'often'
p1045
I0
sS'rustling'
p1046
I0
sS'people'
p1047
I0
sS'duck'
p1048
I0
sS'some'
p1049
I0
sS'back'
p1050
I0
sS'alive'
p1051
I0
sS'bunsen'
p1052
I1
sS'hair'
p1053
I0
sS'born'
p1054
I0
sS'daylight'
p1055
I0
sS'sure'
p1056
I0
sS'sight'
p1057
I0
sS'mirror'
p1058
I0
sS'home'
p1059
I0
sS'satsuma'
p1060
I1
sS'glance'
p1061
I0
sS'Like'
p1062
I0
sS'pronounced'
p1063
I0
sS'gradually'
p1064
I0
sS'for'
p1065
I0
sS'bottom'
p1066
I0
sS'curious'
p1067
I0
sS'shall'
p1068
I0
sS'shone'
p1069
I0
sS'everything'
p1070
I0
sS'pen'
p1071
I0
sS'does'
p1072
I0
sS'Let'
p1073
I0
sS'hedgehogs'
p1074
I1
sS'drink'
p1075
I0
sS'He'
p1076
I0
sS'be'
p1077
I0
sS'sensationalism'
p1078
I0
sS'noise'
p1079
I0
sS'Look'
p1080
I0
sS'malevolent'
p1081
I0
sS'M'
I0
sS'burn'
p1082
I0
sS'unusual'
p1083
I0
sS'pens'
p1084
I0
sS'Venetian'
p1085
I0
sS'broken'
p1086
I0
sS'host'
p1087
I0
sS'although'
p1088
I0
sS'served'
p1089
I0
sS'Ectors'
p1090
I1
sS'eye'
p1091
I0
sS'peep'
p1092
I1
sS'by'
p1093
I0
sS'on'
p1094
I0
sS'about'
p1095
I0
sS'quills'
p1096
I1
sS'yelling'
p1097
I0
sS'anything'
p1098
I0
sS'most'
p1099
I0
sS'exaggerated'
p1100
I0
sS'of'
p1101
I0
sS'withdrew'
p1102
I0
sS'capable'
p1103
I0
sS'rim'
p1104
I0
sS'o'
I1
sS'side'
p1105
I0
sS'practical'
p1106
I0
sS'suspended'
p1107
I0
sS'regular'
p1108
I0
sS'melons'
p1109
I1
sS'MINS'
p1110
I1
sS'curry'
p1111
I1
sS'or'
p1112
I0
sS'badgers'
p1113
I1
sS'owl'
p1114
I8
sS'ladies'
p1115
I0
sS'No'
p1116
I0
sS'into'
p1117
I0
sS'tickle'
p1118
I1
sS'delighted'
p1119
I0
sS'ditto'
p1120
I1
sS'down'
p1121
I0
sS'Their'
p1122
I0
sS'appropriate'
p1123
I0
sS'because'
p1124
I0
sS'been'
p1125
I0
sS'frightened'
p1126
I0
sS'your'
p1127
I0
sS'Beard'
p1128
I1
sS'stare'
p1129
I0
sS'cared'
p1130
I0
sS'beneath'
p1131
I0
sS'her'
p1132
I0
sS'tutor'
p1133
I0
sS'bristles'
p1134
I0
sS'veil'
p1135
I0
sS'scamper'
p1136
I1
sS'there'
p1137
I0
sS'question'
p1138
I0
sS'handles'
p1139
I0
sS'long'
p1140
I0
sS'intention'
p1141
I0
sS'startled'
p1142
I0
sS'caterpillars'
p1143
I1
sS'way'
p1144
I0
sS'forward'
p1145
I0
sS':'
I0
sS'was'
p1146
I0
sS'head'
p1147
I0
sS'himself'
p1148
I0
sS'vulgar'
p1149
I0
sS'complete'
p1150
I0
sS'downstairs'
p1151
I0
sS'tigers'
p1152
I1
sS'Well'
p1153
I0
sS'but'
p1154
I0
sS'gait'
p1155
I0
sS'uncurled'
p1156
I1
sS'boys'
p1157
I0
sS'wiping'
p1158
I0
sS'strawberries'
p1159
I1
sS'hear'
p1160
I0
sS'dead'
p1161
I0
sS'learned'
p1162
I0
sS'cottage'
p1163
I0
sS'shant'
p1164
I1
sS'mice'
p1165
I0
sS'ear'
p1166
I0
sS'with'
p1167
I0
sS'eat'
p1168
I0
sS'he'
p1169
I0
sS'made'
p1170
I0
sS'DAVENTRY'
p1171
I1
sS'skull'
p1172
I1
sS'chained'
p1173
I1
sS'wish'
p1174
I0
sS'inside'
p1175
I0
sS'bottles'
p1176
I0
sS'bucket'
p1177
I0
sS'up'
p1178
I0
sS'us'
p1179
I0
sS'tell'
p1180
I0
sS'excitement'
p1181
I0
sS'reprovingly'
p1182
I1
sS'below'
p1183
I0
sS'accustomed'
p1184
I0
sS'dirty'
p1185
I0
sS'doors'
p1186
I0
sS'Close'
p1187
I0
sS'zodiac'
p1188
I1
sS'grass'
p1189
I0
sS'mask'
p1190
I0
sS'called'
p1191
I0
sS'Sir'
p1192
I0
sS'changes'
p1193
I0
sS'sticks'
p1194
I0
sS'lowering'
p1195
I0
sS'Perhaps'
p1196
I0
sS'beamed'
p1197
I1
sS'am'
p1198
I0
sS'direction'
p1199
I0
sS'an'
p1200
I0
sS'How'
p1201
I0
sS'as'
p1202
I0
sS'at'
p1203
I0
sS'ink'
p1204
I0
sS'means'
p1205
I0
sS'floating'
p1206
I0
sS'simplest'
p1207
I0
sS'triangles'
p1208
I2
sS'cream'
p1209
I0
sS'redder'
p1210
I0
sS'again'
p1211
I0
sS'smelt'
p1212
I0
sS'entirely'
p1213
I0
sS'no'
p1214
I0
sS'dressed'
p1215
I0
sS'inspecpection'
p1216
I1
sS'prerogative'
p1217
I1
sS'when'
p1218
I0
sS'43'
p1219
I0
sS'handed'
p1220
I0
sS'snakes'
p1221
I0
sS'tight'
p1222
I0
sS'other'
p1223
I0
sS'holding'
p1224
I0
sS'papers'
p1225
I0
sS'instantly'
p1226
I0
sS'you'
p1227
I0
sS'really'
p1228
I0
sS'Lady'
p1229
I0
sS'CROWHURST'
p1230
I1
sS'squeals'
p1231
I1
sS'draw'
p1232
I0
sS'mustard'
p1233
I0
sS'phoenix'
p1234
I2
sS'possessed'
p1235
I0
sS'Menzies'
p1236
I1
sS'felt'
p1237
I0
sS'stay'
p1238
I0
sS'strangers'
p1239
I0
sS'April'
p1240
I0
sS'fell'
p1241
I0
sS'brownness'
p1242
I1
sS'skimmed'
p1243
I0
sS'rolling'
p1244
I0
sS'spoonful'
p1245
I1
sS'depicting'
p1246
I0
sS'friends'
p1247
I0
sS'pies'
p1248
I0
sS'ago'
p1249
I0
sS'berries'
p1250
I0
sS'happening'
p1251
I0
sS'moustaches'
p1252
I1
sS'hide'
p1253
I0
sS'Ah'
p1254
I0
sS'pyjamas'
p1255
I2
sS'Am'
p1256
I0
sS'walked'
p1257
I0
sS'parcels'
p1258
I1
sS'haymakers'
p1259
I1
sS'lift'
p1260
I0
sS'Scott'
p1261
I0
sS'At'
p1262
I0
sS'time'
p1263
I0
sS'far'
p1264
I0
sS'understand'
p1265
I0
sS'backward'
p1266
I0
sS'Warts'
p1267
I2
sS'having'
p1268
I0
sS'troubles'
p1269
I0
sS'once'
p1270
I0
s.